target datalayout = "e-m:e-p270:32:32-p271:32:32-p272:64:64-i64:64-i128:128-f80:128-n8:16:32:64-S128"
target triple = "x86_64-pc-linux-gnu"

%"class.llvm::SmallVectorBase" = type { ptr, i32, i32 }
%"class.llvm::SmallPtrSetImplBase.base" = type <{ ptr, ptr, i32, i32, i32 }>
%"class.llvm::LoopVectorizationLegality" = type <{ ptr, ptr, ptr, ptr, ptr, ptr, ptr, ptr, ptr, ptr, %"class.llvm::MapVector", %"class.llvm::MapVector.86", %"class.llvm::SmallPtrSet.92", %"class.llvm::SmallPtrSet.95", ptr, %"class.llvm::SmallPtrSet.98", ptr, ptr, ptr, ptr, %"class.llvm::SmallPtrSet.101", ptr, ptr, i8, [7 x i8] }>
%"class.llvm::MapVector" = type { %"class.llvm::DenseMap.78", %"class.llvm::SmallVector.81" }
%"class.llvm::DenseMap.78" = type <{ ptr, i32, i32, i32, [4 x i8] }>
%"class.llvm::SmallVector.81" = type { %"class.llvm::SmallVectorImpl.82" }
%"class.llvm::SmallVectorImpl.82" = type { %"class.llvm::SmallVectorTemplateBase.83" }
%"class.llvm::SmallVectorTemplateBase.83" = type { %"class.llvm::SmallVectorTemplateCommon.84" }
%"class.llvm::SmallVectorTemplateCommon.84" = type { %"class.llvm::SmallVectorBase" }
%"class.llvm::MapVector.86" = type { %"class.llvm::DenseMap.78", %"class.llvm::SmallVector.87" }
%"class.llvm::SmallVector.87" = type { %"class.llvm::SmallVectorImpl.88" }
%"class.llvm::SmallVectorImpl.88" = type { %"class.llvm::SmallVectorTemplateBase.89" }
%"class.llvm::SmallVectorTemplateBase.89" = type { %"class.llvm::SmallVectorTemplateCommon.90" }
%"class.llvm::SmallVectorTemplateCommon.90" = type { %"class.llvm::SmallVectorBase" }
%"class.llvm::SmallPtrSet.92" = type { %"class.llvm::SmallPtrSetImpl.base.94", [4 x ptr] }
%"class.llvm::SmallPtrSetImpl.base.94" = type { %"class.llvm::SmallPtrSetImplBase.base" }
%"class.llvm::SmallPtrSet.95" = type { %"class.llvm::SmallPtrSetImpl.base.97", [8 x ptr] }
%"class.llvm::SmallPtrSetImpl.base.97" = type { %"class.llvm::SmallPtrSetImplBase.base" }
%"class.llvm::SmallPtrSet.98" = type { %"class.llvm::SmallPtrSetImpl.base.100", [4 x ptr] }
%"class.llvm::SmallPtrSetImpl.base.100" = type { %"class.llvm::SmallPtrSetImplBase.base" }
%"class.llvm::SmallPtrSet.101" = type { %"class.llvm::SmallPtrSetImpl.base.103", [8 x ptr] }
%"class.llvm::SmallPtrSetImpl.base.103" = type { %"class.llvm::SmallPtrSetImplBase.base" }
%"class.llvm::SmallPtrSetImplBase" = type <{ ptr, ptr, i32, i32, i32, [4 x i8] }>

; Function Attrs: mustprogress nounwind uwtable
define linkonce_odr hidden noundef zeroext i1 @_ZNK4llvm19SmallPtrSetImplBase7isSmallEv(ptr noundef nonnull align 8 dereferenceable(28) %0) #1 comdat align 2 {
  %2 = alloca ptr, align 8
  store ptr %0, ptr %2, align 8
  %3 = load ptr, ptr %2, align 8
  %4 = getelementptr inbounds nuw %"class.llvm::SmallPtrSetImplBase", ptr %3, i32 0, i32 1
  %5 = load ptr, ptr %4, align 8
  %6 = getelementptr inbounds nuw %"class.llvm::SmallPtrSetImplBase", ptr %3, i32 0, i32 0
  %7 = load ptr, ptr %6, align 8
  %8 = icmp eq ptr %5, %7
  ret i1 %8
}

; Function Attrs: mustprogress nounwind uwtable
define linkonce_odr hidden noundef ptr @_ZN4llvm21PointerLikeTypeTraitsIPNS_7PHINodeEE16getAsVoidPointerES2_(ptr noundef %0) #1 comdat align 2 {
  %2 = alloca ptr, align 8
  store ptr %0, ptr %2, align 8
  %3 = load ptr, ptr %2, align 8
  ret ptr %3
}

; Function Attrs: mustprogress nounwind uwtable
define linkonce_odr hidden noundef ptr @_ZNK4llvm19SmallPtrSetImplBase10EndPointerEv(ptr noundef nonnull align 8 dereferenceable(28) %0) #1 comdat align 2 {
  %2 = alloca ptr, align 8
  store ptr %0, ptr %2, align 8
  %3 = load ptr, ptr %2, align 8
  %4 = call noundef zeroext i1 @_ZNK4llvm19SmallPtrSetImplBase7isSmallEv(ptr noundef nonnull align 8 dereferenceable(28) %3)
  br i1 %4, label %5, label %12

5:                                                ; preds = %1
  %6 = getelementptr inbounds nuw %"class.llvm::SmallPtrSetImplBase", ptr %3, i32 0, i32 1
  %7 = load ptr, ptr %6, align 8
  %8 = getelementptr inbounds nuw %"class.llvm::SmallPtrSetImplBase", ptr %3, i32 0, i32 3
  %9 = load i32, ptr %8, align 4
  %10 = zext i32 %9 to i64
  %11 = getelementptr inbounds ptr, ptr %7, i64 %10
  br label %19

12:                                               ; preds = %1
  %13 = getelementptr inbounds nuw %"class.llvm::SmallPtrSetImplBase", ptr %3, i32 0, i32 1
  %14 = load ptr, ptr %13, align 8
  %15 = getelementptr inbounds nuw %"class.llvm::SmallPtrSetImplBase", ptr %3, i32 0, i32 2
  %16 = load i32, ptr %15, align 8
  %17 = zext i32 %16 to i64
  %18 = getelementptr inbounds ptr, ptr %14, i64 %17
  br label %19

19:                                               ; preds = %12, %5
  %20 = phi ptr [ %11, %5 ], [ %18, %12 ]
  ret ptr %20
}

; Function Attrs: mustprogress nounwind uwtable
define linkonce_odr hidden noundef ptr @_ZNK4llvm19SmallPtrSetImplBase8find_impEPKv(ptr noundef nonnull align 8 dereferenceable(28) %0, ptr noundef %1) #1 comdat align 2 {
  %3 = alloca ptr, align 8
  %4 = alloca ptr, align 8
  %5 = alloca ptr, align 8
  %6 = alloca ptr, align 8
  %7 = alloca ptr, align 8
  %8 = alloca ptr, align 8
  store ptr %0, ptr %4, align 8
  store ptr %1, ptr %5, align 8
  %9 = load ptr, ptr %4, align 8
  %10 = call noundef zeroext i1 @_ZNK4llvm19SmallPtrSetImplBase7isSmallEv(ptr noundef nonnull align 8 dereferenceable(28) %9)
  br i1 %10, label %11, label %37

11:                                               ; preds = %2
  %12 = getelementptr inbounds nuw %"class.llvm::SmallPtrSetImplBase", ptr %9, i32 0, i32 0
  %13 = load ptr, ptr %12, align 8
  store ptr %13, ptr %6, align 8
  %14 = getelementptr inbounds nuw %"class.llvm::SmallPtrSetImplBase", ptr %9, i32 0, i32 0
  %15 = load ptr, ptr %14, align 8
  %16 = getelementptr inbounds nuw %"class.llvm::SmallPtrSetImplBase", ptr %9, i32 0, i32 3
  %17 = load i32, ptr %16, align 4
  %18 = zext i32 %17 to i64
  %19 = getelementptr inbounds ptr, ptr %15, i64 %18
  store ptr %19, ptr %7, align 8
  br label %20

20:                                               ; preds = %32, %11
  %21 = load ptr, ptr %6, align 8
  %22 = load ptr, ptr %7, align 8
  %23 = icmp ne ptr %21, %22
  br i1 %23, label %24, label %35

24:                                               ; preds = %20
  %25 = load ptr, ptr %6, align 8
  %26 = load ptr, ptr %25, align 8
  %27 = load ptr, ptr %5, align 8
  %28 = icmp eq ptr %26, %27
  br i1 %28, label %29, label %31

29:                                               ; preds = %24
  %30 = load ptr, ptr %6, align 8
  store ptr %30, ptr %3, align 8
  br label %46

31:                                               ; preds = %24
  br label %32

32:                                               ; preds = %31
  %33 = load ptr, ptr %6, align 8
  %34 = getelementptr inbounds ptr, ptr %33, i32 1
  store ptr %34, ptr %6, align 8
  br label %20, !llvm.loop !29

35:                                               ; preds = %20
  %36 = call noundef ptr @_ZNK4llvm19SmallPtrSetImplBase10EndPointerEv(ptr noundef nonnull align 8 dereferenceable(28) %9)
  store ptr %36, ptr %3, align 8
  br label %46

37:                                               ; preds = %2
  %38 = load ptr, ptr %5, align 8
  %39 = call noundef ptr @_ZNK4llvm19SmallPtrSetImplBase6doFindEPKv(ptr noundef nonnull align 8 dereferenceable(28) %9, ptr noundef %38)
  store ptr %39, ptr %8, align 8
  %40 = load ptr, ptr %8, align 8
  %41 = icmp ne ptr %40, null
  br i1 %41, label %42, label %44

42:                                               ; preds = %37
  %43 = load ptr, ptr %8, align 8
  store ptr %43, ptr %3, align 8
  br label %46

44:                                               ; preds = %37
  %45 = call noundef ptr @_ZNK4llvm19SmallPtrSetImplBase10EndPointerEv(ptr noundef nonnull align 8 dereferenceable(28) %9)
  store ptr %45, ptr %3, align 8
  br label %46

46:                                               ; preds = %44, %42, %35, %29
  %47 = load ptr, ptr %3, align 8
  ret ptr %47
}

; Function Attrs: mustprogress nounwind uwtable
define linkonce_odr hidden noundef ptr @_ZN4llvm21PointerLikeTypeTraitsIPKNS_7PHINodeEE16getAsVoidPointerES3_(ptr noundef %0) #1 comdat align 2 {
  %2 = alloca ptr, align 8
  store ptr %0, ptr %2, align 8
  %3 = load ptr, ptr %2, align 8
  %4 = call noundef ptr @_ZN4llvm21PointerLikeTypeTraitsIPNS_7PHINodeEE16getAsVoidPointerES2_(ptr noundef %3)
  ret ptr %4
}

; Function Attrs: mustprogress nounwind uwtable
define linkonce_odr hidden noundef i32 @_ZNK4llvm15SmallPtrSetImplIPKNS_7PHINodeEE5countES3_(ptr noundef nonnull align 8 dereferenceable(28) %0, ptr noundef %1) #1 comdat align 2 {
  %3 = alloca ptr, align 8
  %4 = alloca ptr, align 8
  store ptr %0, ptr %3, align 8
  store ptr %1, ptr %4, align 8
  %5 = load ptr, ptr %3, align 8
  %6 = load ptr, ptr %4, align 8
  %7 = call noundef ptr @_ZN4llvm21PointerLikeTypeTraitsIPKNS_7PHINodeEE16getAsVoidPointerES3_(ptr noundef %6)
  %8 = call noundef ptr @_ZNK4llvm19SmallPtrSetImplBase8find_impEPKv(ptr noundef nonnull align 8 dereferenceable(28) %5, ptr noundef %7)
  %9 = call noundef ptr @_ZNK4llvm19SmallPtrSetImplBase10EndPointerEv(ptr noundef nonnull align 8 dereferenceable(28) %5)
  %10 = icmp ne ptr %8, %9
  %11 = zext i1 %10 to i32
  ret i32 %11
}

; Function Attrs: mustprogress nounwind uwtable
define dso_local noundef zeroext i1 @_ZNK4llvm25LoopVectorizationLegality22isFixedOrderRecurrenceEPKNS_7PHINodeE(ptr noundef nonnull align 8 dereferenceable(537) %0, ptr noundef %1) #1 align 2 {
  %3 = alloca ptr, align 8
  %4 = alloca ptr, align 8
  store ptr %0, ptr %3, align 8
  store ptr %1, ptr %4, align 8
  %5 = load ptr, ptr %3, align 8
  %6 = getelementptr inbounds nuw %"class.llvm::LoopVectorizationLegality", ptr %5, i32 0, i32 13
  %7 = load ptr, ptr %4, align 8
  %8 = call noundef i32 @_ZNK4llvm15SmallPtrSetImplIPKNS_7PHINodeEE5countES3_(ptr noundef nonnull align 8 dereferenceable(28) %6, ptr noundef %7)
  %9 = icmp ne i32 %8, 0
  ret i1 %9
}