; Function Attrs: mustprogress nounwind uwtable
define dso_local noundef zeroext i1 @_ZNK4llvm25LoopVectorizationLegality22isFixedOrderRecurrenceEPKNS_7PHINodeE(ptr noundef nonnull align 8 dereferenceable(537) %0, ptr noundef %1) local_unnamed_addr #0 align 2 {
  %3 = getelementptr inbounds nuw i8, ptr %0, i64 224
  %4 = getelementptr inbounds nuw i8, ptr %0, i64 232
  %5 = load ptr, ptr %4, align 8
  %6 = load ptr, ptr %3, align 8
  %7 = icmp eq ptr %5, %6
  br i1 %7, label %8, label %18

8:                                                ; preds = %2
  %9 = getelementptr inbounds nuw i8, ptr %0, i64 244
  %10 = load i32, ptr %9, align 4
  %11 = zext i32 %10 to i64
  %12 = getelementptr inbounds nuw ptr, ptr %6, i64 %11
  %.not1317.i.i = icmp eq i32 %10, 0
  br i1 %.not1317.i.i, label %._crit_edge.i.i, label %.lr.ph.i.i

.lr.ph.i.i:                                       ; preds = %8, %15
  %.01118.i.i = phi ptr [ %16, %15 ], [ %6, %8 ]
  %13 = load ptr, ptr %.01118.i.i, align 8
  %14 = icmp eq ptr %13, %1
  br i1 %14, label %_ZNK4llvm15SmallPtrSetImplIPKNS_7PHINodeEE5countES3_.exit, label %15

15:                                               ; preds = %.lr.ph.i.i
  %16 = getelementptr inbounds nuw i8, ptr %.01118.i.i, i64 8
  %.not13.i.i = icmp eq ptr %16, %12
  br i1 %.not13.i.i, label %._crit_edge.i.i, label %.lr.ph.i.i, !llvm.loop !60

._crit_edge.i.i:                                  ; preds = %15, %8
  %17 = getelementptr inbounds nuw ptr, ptr %5, i64 %11
  br label %_ZNK4llvm15SmallPtrSetImplIPKNS_7PHINodeEE5countES3_.exit

18:                                               ; preds = %2
  %19 = tail call noundef ptr @_ZNK4llvm19SmallPtrSetImplBase6doFindEPKv(ptr noundef nonnull align 8 dereferenceable(28) %3, ptr noundef %1) #20
  %.not.i.i = icmp eq ptr %19, null
  %.pre.i = load ptr, ptr %4, align 8
  %.pre4.i = load ptr, ptr %3, align 8
  br i1 %.not.i.i, label %20, label %._ZNK4llvm19SmallPtrSetImplBase8find_impEPKv.exit_crit_edge.i

._ZNK4llvm19SmallPtrSetImplBase8find_impEPKv.exit_crit_edge.i: ; preds = %18
  %.phi.trans.insert.i = getelementptr inbounds nuw i8, ptr %0, i64 244
  %.pre5.i = load i32, ptr %.phi.trans.insert.i, align 4
  br label %_ZNK4llvm15SmallPtrSetImplIPKNS_7PHINodeEE5countES3_.exit

20:                                               ; preds = %18
  %21 = icmp eq ptr %.pre.i, %.pre4.i
  %22 = getelementptr inbounds nuw i8, ptr %0, i64 244
  %23 = load i32, ptr %22, align 4
  %24 = getelementptr inbounds nuw i8, ptr %0, i64 240
  %25 = load i32, ptr %24, align 8
  %.v.v.i14.i.i = select i1 %21, i32 %23, i32 %25
  %.v.i15.i.i = zext i32 %.v.v.i14.i.i to i64
  %26 = getelementptr inbounds nuw ptr, ptr %.pre.i, i64 %.v.i15.i.i
  br label %_ZNK4llvm15SmallPtrSetImplIPKNS_7PHINodeEE5countES3_.exit

_ZNK4llvm15SmallPtrSetImplIPKNS_7PHINodeEE5countES3_.exit: ; preds = %.lr.ph.i.i, %._crit_edge.i.i, %._ZNK4llvm19SmallPtrSetImplBase8find_impEPKv.exit_crit_edge.i, %20
  %27 = phi i32 [ %10, %._crit_edge.i.i ], [ %23, %20 ], [ %.pre5.i, %._ZNK4llvm19SmallPtrSetImplBase8find_impEPKv.exit_crit_edge.i ], [ %10, %.lr.ph.i.i ]
  %28 = phi ptr [ %5, %._crit_edge.i.i ], [ %.pre4.i, %20 ], [ %.pre4.i, %._ZNK4llvm19SmallPtrSetImplBase8find_impEPKv.exit_crit_edge.i ], [ %5, %.lr.ph.i.i ]
  %29 = phi ptr [ %5, %._crit_edge.i.i ], [ %.pre.i, %20 ], [ %.pre.i, %._ZNK4llvm19SmallPtrSetImplBase8find_impEPKv.exit_crit_edge.i ], [ %5, %.lr.ph.i.i ]
  %.0.i.i = phi ptr [ %17, %._crit_edge.i.i ], [ %26, %20 ], [ %19, %._ZNK4llvm19SmallPtrSetImplBase8find_impEPKv.exit_crit_edge.i ], [ %.01118.i.i, %.lr.ph.i.i ]
  %30 = icmp eq ptr %29, %28
  %31 = getelementptr inbounds nuw i8, ptr %0, i64 240
  %32 = load i32, ptr %31, align 8
  %.v.v.i.i = select i1 %30, i32 %27, i32 %32
  %.v.i.i = zext i32 %.v.v.i.i to i64
  %33 = getelementptr inbounds nuw ptr, ptr %29, i64 %.v.i.i
  %34 = icmp ne ptr %.0.i.i, %33
  ret i1 %34
}